; Function Attrs: nofree nounwind uwtable
define void @Abc_SclReportDupFanins(ptr noundef readonly captures(none) %0) local_unnamed_addr #0 {
  %2 = getelementptr inbounds nuw i8, ptr %0, i64 32
  %3 = load ptr, ptr %2, align 8, !tbaa !3
  %4 = getelementptr i8, ptr %3, i64 4
  %.val45 = load i32, ptr %4, align 4, !tbaa !24
  %5 = icmp sgt i32 %.val45, 0
  br i1 %5, label %.lr.ph47, label %.critedge

.lr.ph47:                                         ; preds = %1, %.critedge2
  %6 = phi ptr [ %43, %.critedge2 ], [ %3, %1 ]
  %indvars.iv53 = phi i64 [ %indvars.iv.next54, %.critedge2 ], [ 0, %1 ]
  %7 = getelementptr i8, ptr %6, i64 8
  %.val31.val = load ptr, ptr %7, align 8, !tbaa !26
  %8 = getelementptr inbounds nuw ptr, ptr %.val31.val, i64 %indvars.iv53
  %9 = load ptr, ptr %8, align 8, !tbaa !27
  %10 = icmp eq ptr %9, null
  br i1 %10, label %.critedge2, label %11

11:                                               ; preds = %.lr.ph47
  %12 = getelementptr i8, ptr %9, i64 20
  %.val32 = load i32, ptr %12, align 4
  %13 = and i32 %.val32, 15
  %.not = icmp eq i32 %13, 7
  br i1 %.not, label %.preheader, label %.critedge2

.preheader:                                       ; preds = %11
  %14 = getelementptr i8, ptr %9, i64 28
  %.val3342 = load i32, ptr %14, align 4, !tbaa !28
  %15 = icmp sgt i32 %.val3342, 0
  br i1 %15, label %.lr.ph44.split.preheader, label %.critedge2

.lr.ph44.split.preheader:                         ; preds = %.preheader
  %16 = getelementptr i8, ptr %9, i64 32
  %17 = trunc nuw nsw i64 %indvars.iv53 to i32
  br label %.lr.ph44.split

.lr.ph44.split:                                   ; preds = %.lr.ph44.split.preheader, %.critedge4
  %.val3362 = phi i32 [ %.val3342, %.lr.ph44.split.preheader ], [ %.val33, %.critedge4 ]
  %indvars.iv50 = phi i64 [ 0, %.lr.ph44.split.preheader ], [ %indvars.iv.next51, %.critedge4 ]
  %.val35 = load ptr, ptr %9, align 8, !tbaa !31
  %.val36 = load ptr, ptr %16, align 8, !tbaa !32
  %18 = getelementptr i8, ptr %.val35, i64 32
  %.val35.val = load ptr, ptr %18, align 8, !tbaa !3
  %19 = getelementptr i8, ptr %.val35.val, i64 8
  %.val35.val.val = load ptr, ptr %19, align 8, !tbaa !26
  %20 = getelementptr inbounds nuw i32, ptr %.val36, i64 %indvars.iv50
  %21 = load i32, ptr %20, align 4, !tbaa !33
  %22 = sext i32 %21 to i64
  %23 = getelementptr inbounds ptr, ptr %.val35.val.val, i64 %22
  %24 = load ptr, ptr %23, align 8, !tbaa !27
  %25 = icmp sgt i32 %.val3362, 0
  br i1 %25, label %.lr.ph, label %.critedge4

.lr.ph:                                           ; preds = %.lr.ph44.split
  %26 = getelementptr i8, ptr %24, i64 16
  br label %27

27:                                               ; preds = %.lr.ph, %38
  %.val3361 = phi i32 [ %.val3362, %.lr.ph ], [ %.val3360, %38 ]
  %.val3457 = phi i32 [ %.val3362, %.lr.ph ], [ %.val34, %38 ]
  %indvars.iv = phi i64 [ 0, %.lr.ph ], [ %indvars.iv.next, %38 ]
  %.val37 = load ptr, ptr %9, align 8, !tbaa !31
  %.val38 = load ptr, ptr %16, align 8, !tbaa !32
  %28 = getelementptr i8, ptr %.val37, i64 32
  %.val37.val = load ptr, ptr %28, align 8, !tbaa !3
  %29 = getelementptr i8, ptr %.val37.val, i64 8
  %.val37.val.val = load ptr, ptr %29, align 8, !tbaa !26
  %30 = getelementptr inbounds nuw i32, ptr %.val38, i64 %indvars.iv
  %31 = load i32, ptr %30, align 4, !tbaa !33
  %32 = sext i32 %31 to i64
  %33 = getelementptr inbounds ptr, ptr %.val37.val.val, i64 %32
  %34 = load ptr, ptr %33, align 8, !tbaa !27
  %.not30 = icmp ne i64 %indvars.iv50, %indvars.iv
  %35 = icmp eq ptr %24, %34
  %or.cond = select i1 %.not30, i1 %35, i1 false
  br i1 %or.cond, label %36, label %38

36:                                               ; preds = %27
  %.val39 = load i32, ptr %26, align 8, !tbaa !34
  %37 = tail call i32 (ptr, ...) @printf(ptr noundef nonnull dereferenceable(1) @.str, i32 noundef %17, i32 noundef %.val39)
  %.val34.pre = load i32, ptr %14, align 4, !tbaa !28
  br label %38

38:                                               ; preds = %27, %36
  %.val3360 = phi i32 [ %.val3361, %27 ], [ %.val34.pre, %36 ]
  %.val34 = phi i32 [ %.val3457, %27 ], [ %.val34.pre, %36 ]
  %indvars.iv.next = add nuw nsw i64 %indvars.iv, 1
  %39 = sext i32 %.val34 to i64
  %40 = icmp slt i64 %indvars.iv.next, %39
  br i1 %40, label %27, label %.critedge4, !llvm.loop !35

.critedge4:                                       ; preds = %38, %.lr.ph44.split
  %.val33 = phi i32 [ %.val3362, %.lr.ph44.split ], [ %.val3360, %38 ]
  %indvars.iv.next51 = add nuw nsw i64 %indvars.iv50, 1
  %41 = sext i32 %.val33 to i64
  %42 = icmp slt i64 %indvars.iv.next51, %41
  br i1 %42, label %.lr.ph44.split, label %.critedge2.loopexit, !llvm.loop !37

.critedge2.loopexit:                              ; preds = %.critedge4
  %.pre = load ptr, ptr %2, align 8, !tbaa !3
  br label %.critedge2

.critedge2:                                       ; preds = %.critedge2.loopexit, %.preheader, %11, %.lr.ph47
  %43 = phi ptr [ %.pre, %.critedge2.loopexit ], [ %6, %.preheader ], [ %6, %11 ], [ %6, %.lr.ph47 ]
  %indvars.iv.next54 = add nuw nsw i64 %indvars.iv53, 1
  %44 = getelementptr i8, ptr %43, i64 4
  %.val = load i32, ptr %44, align 4, !tbaa !24
  %45 = sext i32 %.val to i64
  %46 = icmp slt i64 %indvars.iv.next54, %45
  br i1 %46, label %.lr.ph47, label %.critedge, !llvm.loop !39

.critedge:                                        ; preds = %.critedge2, %1
  ret void
}